target datalayout = "e-m:e-p270:32:32-p271:32:32-p272:64:64-i64:64-i128:128-f80:128-n8:16:32:64-S128"
target triple = "x86_64-pc-linux-gnu"

%struct.jit_State = type { %struct.GCtrace, ptr, ptr, ptr, ptr, ptr, ptr, i32, i32, i32, i8, i8, %struct.IRType1, i8, %struct.FoldState, ptr, i32, i32, i32, i32, i32, i32, i32, [1 x i32], [5 x %union.TValue], [3 x %union.TValue], ptr, i32, i32, i32, i32, ptr, ptr, i32, i32, i8, ptr, i32, i32, i16, [101 x i16], [258 x i32], [15 x i32], [16 x ptr], [64 x %struct.HotPenalty], i32, [16 x %struct.BPropEntry], i32, %struct.ScEvEntry, ptr, i32, i32, i32, ptr, i32, i32, ptr, ptr, ptr, i64, i64, %union.TValue, ptr, i32, i32 }
%struct.GCtrace = type { %struct.GCRef, i8, i8, i16, i32, i32, %struct.GCRef, ptr, i32, i32, ptr, ptr, %struct.GCRef, %struct.MRef, i32, i32, ptr, i32, i16, i16, i16, i16, i16, i16, i16, i8, i8, i8, i8 }
%struct.GCRef = type { i64 }
%struct.MRef = type { i64 }
%struct.IRType1 = type { i8 }
%struct.FoldState = type { %union.IRIns, [2 x %union.IRIns], [2 x %union.IRIns] }
%union.IRIns = type { %struct.GCRef }
%struct.HotPenalty = type { %struct.MRef, i16, i16 }
%struct.BPropEntry = type { i16, i16, i32 }
%struct.ScEvEntry = type { %struct.MRef, i16, i16, i16, i16, %struct.IRType1, i8 }
%union.TValue = type { i64 }
%struct.anon.0 = type { i32, %struct.IRType1, i8, i8, i8 }

; Function Attrs: nounwind uwtable
define internal i32 @fold_kfold_int64arith2(ptr noundef %0) #0 {
  %2 = alloca ptr, align 8
  %3 = alloca i64, align 8
  %4 = alloca i64, align 8
  store ptr %0, ptr %2, align 8, !tbaa !4
  call void @llvm.lifetime.start.p0(i64 8, ptr %3) #8
  %5 = load ptr, ptr %2, align 8, !tbaa !4
  %6 = getelementptr inbounds nuw %struct.jit_State, ptr %5, i32 0, i32 14
  %7 = getelementptr inbounds nuw %struct.FoldState, ptr %6, i32 0, i32 1
  %8 = getelementptr inbounds [2 x %union.IRIns], ptr %7, i64 0, i64 1
  %9 = load i64, ptr %8, align 8, !tbaa !29
  store i64 %9, ptr %3, align 8, !tbaa !52
  call void @llvm.lifetime.start.p0(i64 8, ptr %4) #8
  %10 = load ptr, ptr %2, align 8, !tbaa !4
  %11 = getelementptr inbounds nuw %struct.jit_State, ptr %10, i32 0, i32 14
  %12 = getelementptr inbounds nuw %struct.FoldState, ptr %11, i32 0, i32 2
  %13 = getelementptr inbounds [2 x %union.IRIns], ptr %12, i64 0, i64 1
  %14 = load i64, ptr %13, align 8, !tbaa !29
  store i64 %14, ptr %4, align 8, !tbaa !52
  %15 = load ptr, ptr %2, align 8, !tbaa !4
  %16 = getelementptr inbounds nuw %struct.jit_State, ptr %15, i32 0, i32 14
  %17 = getelementptr inbounds nuw %struct.FoldState, ptr %16, i32 0, i32 0
  %18 = getelementptr inbounds nuw %struct.anon.0, ptr %17, i32 0, i32 1
  %19 = getelementptr inbounds nuw %struct.IRType1, ptr %18, i32 0, i32 0
  %20 = load i8, ptr %19, align 4, !tbaa !29
  %21 = zext i8 %20 to i32
  %22 = and i32 %21, 31
  %23 = icmp eq i32 %22, 21
  br i1 %23, label %24, label %56

24:                                               ; preds = %1
  %25 = load ptr, ptr %2, align 8, !tbaa !4
  %26 = getelementptr inbounds nuw %struct.jit_State, ptr %25, i32 0, i32 14
  %27 = getelementptr inbounds nuw %struct.FoldState, ptr %26, i32 0, i32 0
  %28 = getelementptr inbounds nuw %struct.anon.0, ptr %27, i32 0, i32 2
  %29 = load i8, ptr %28, align 1, !tbaa !29
  %30 = zext i8 %29 to i32
  %31 = icmp eq i32 %30, 44
  br i1 %31, label %32, label %36

32:                                               ; preds = %24
  %33 = load i64, ptr %3, align 8, !tbaa !52
  %34 = load i64, ptr %4, align 8, !tbaa !52
  %35 = call i64 @lj_carith_divi64(i64 noundef %33, i64 noundef %34)
  br label %54

36:                                               ; preds = %24
  %37 = load ptr, ptr %2, align 8, !tbaa !4
  %38 = getelementptr inbounds nuw %struct.jit_State, ptr %37, i32 0, i32 14
  %39 = getelementptr inbounds nuw %struct.FoldState, ptr %38, i32 0, i32 0
  %40 = getelementptr inbounds nuw %struct.anon.0, ptr %39, i32 0, i32 2
  %41 = load i8, ptr %40, align 1, !tbaa !29
  %42 = zext i8 %41 to i32
  %43 = icmp eq i32 %42, 45
  br i1 %43, label %44, label %48

44:                                               ; preds = %36
  %45 = load i64, ptr %3, align 8, !tbaa !52
  %46 = load i64, ptr %4, align 8, !tbaa !52
  %47 = call i64 @lj_carith_modi64(i64 noundef %45, i64 noundef %46)
  br label %52

48:                                               ; preds = %36
  %49 = load i64, ptr %3, align 8, !tbaa !52
  %50 = load i64, ptr %4, align 8, !tbaa !52
  %51 = call i64 @lj_carith_powi64(i64 noundef %49, i64 noundef %50)
  br label %52

52:                                               ; preds = %48, %44
  %53 = phi i64 [ %47, %44 ], [ %51, %48 ]
  br label %54

54:                                               ; preds = %52, %32
  %55 = phi i64 [ %35, %32 ], [ %53, %52 ]
  store i64 %55, ptr %3, align 8, !tbaa !52
  br label %88

56:                                               ; preds = %1
  %57 = load ptr, ptr %2, align 8, !tbaa !4
  %58 = getelementptr inbounds nuw %struct.jit_State, ptr %57, i32 0, i32 14
  %59 = getelementptr inbounds nuw %struct.FoldState, ptr %58, i32 0, i32 0
  %60 = getelementptr inbounds nuw %struct.anon.0, ptr %59, i32 0, i32 2
  %61 = load i8, ptr %60, align 1, !tbaa !29
  %62 = zext i8 %61 to i32
  %63 = icmp eq i32 %62, 44
  br i1 %63, label %64, label %68

64:                                               ; preds = %56
  %65 = load i64, ptr %3, align 8, !tbaa !52
  %66 = load i64, ptr %4, align 8, !tbaa !52
  %67 = call i64 @lj_carith_divu64(i64 noundef %65, i64 noundef %66)
  br label %86

68:                                               ; preds = %56
  %69 = load ptr, ptr %2, align 8, !tbaa !4
  %70 = getelementptr inbounds nuw %struct.jit_State, ptr %69, i32 0, i32 14
  %71 = getelementptr inbounds nuw %struct.FoldState, ptr %70, i32 0, i32 0
  %72 = getelementptr inbounds nuw %struct.anon.0, ptr %71, i32 0, i32 2
  %73 = load i8, ptr %72, align 1, !tbaa !29
  %74 = zext i8 %73 to i32
  %75 = icmp eq i32 %74, 45
  br i1 %75, label %76, label %80

76:                                               ; preds = %68
  %77 = load i64, ptr %3, align 8, !tbaa !52
  %78 = load i64, ptr %4, align 8, !tbaa !52
  %79 = call i64 @lj_carith_modu64(i64 noundef %77, i64 noundef %78)
  br label %84

80:                                               ; preds = %68
  %81 = load i64, ptr %3, align 8, !tbaa !52
  %82 = load i64, ptr %4, align 8, !tbaa !52
  %83 = call i64 @lj_carith_powu64(i64 noundef %81, i64 noundef %82)
  br label %84

84:                                               ; preds = %80, %76
  %85 = phi i64 [ %79, %76 ], [ %83, %80 ]
  br label %86

86:                                               ; preds = %84, %64
  %87 = phi i64 [ %67, %64 ], [ %85, %84 ]
  store i64 %87, ptr %3, align 8, !tbaa !52
  br label %88

88:                                               ; preds = %86, %54
  %89 = load ptr, ptr %2, align 8, !tbaa !4
  %90 = load i64, ptr %3, align 8, !tbaa !52
  %91 = call i32 @lj_ir_kint64(ptr noundef %89, i64 noundef %90)
  call void @llvm.lifetime.end.p0(i64 8, ptr %4) #8
  call void @llvm.lifetime.end.p0(i64 8, ptr %3) #8
  ret i32 %91
}