; Function Attrs: nounwind uwtable
define internal i32 @fold_kfold_int64arith2(ptr noundef %0) #0 {
  %2 = getelementptr inbounds nuw i8, ptr %0, i64 200
  %3 = load i64, ptr %2, align 8, !tbaa !28
  %4 = getelementptr inbounds nuw i8, ptr %0, i64 216
  %5 = load i64, ptr %4, align 8, !tbaa !28
  %6 = getelementptr inbounds nuw i8, ptr %0, i64 188
  %7 = load i8, ptr %6, align 4, !tbaa !28
  %8 = and i8 %7, 31
  %9 = icmp eq i8 %8, 21
  %10 = getelementptr inbounds nuw i8, ptr %0, i64 189
  %11 = load i8, ptr %10, align 1, !tbaa !28
  br i1 %9, label %12, label %19

12:                                               ; preds = %1
  switch i8 %11, label %17 [
    i8 44, label %13
    i8 45, label %15
  ]

13:                                               ; preds = %12
  %14 = tail call i64 @lj_carith_divi64(i64 noundef %3, i64 noundef %5) #12
  br label %26

15:                                               ; preds = %12
  %16 = tail call i64 @lj_carith_modi64(i64 noundef %3, i64 noundef %5) #12
  br label %26

17:                                               ; preds = %12
  %18 = tail call i64 @lj_carith_powi64(i64 noundef %3, i64 noundef %5) #12
  br label %26

19:                                               ; preds = %1
  switch i8 %11, label %24 [
    i8 44, label %20
    i8 45, label %22
  ]

20:                                               ; preds = %19
  %21 = tail call i64 @lj_carith_divu64(i64 noundef %3, i64 noundef %5) #12
  br label %26

22:                                               ; preds = %19
  %23 = tail call i64 @lj_carith_modu64(i64 noundef %3, i64 noundef %5) #12
  br label %26

24:                                               ; preds = %19
  %25 = tail call i64 @lj_carith_powu64(i64 noundef %3, i64 noundef %5) #12
  br label %26

26:                                               ; preds = %20, %24, %22, %13, %17, %15
  %.0 = phi i64 [ %14, %13 ], [ %16, %15 ], [ %18, %17 ], [ %21, %20 ], [ %23, %22 ], [ %25, %24 ]
  %27 = tail call i32 @lj_ir_kint64(ptr noundef nonnull %0, i64 noundef %.0) #12
  ret i32 %27
}